target datalayout = "e-m:e-p270:32:32-p271:32:32-p272:64:64-i64:64-i128:128-f80:128-n8:16:32:64-S128"
target triple = "x86_64-pc-linux-gnu"

%struct.ssl_common_options = type { ptr, ptr }
%struct.ssl_master_key_map_t = type { ptr, ptr, ptr, ptr, ptr, ptr, ptr, ptr, ptr, ptr, ptr, ptr, ptr, ptr, ptr }

@ssl_options = internal global %struct.ssl_common_options zeroinitializer, align 8
@ssl_keylog_file = internal global ptr null, align 8
@ssl_master_key_map = internal global %struct.ssl_master_key_map_t zeroinitializer, align 8

; Function Attrs: null_pointer_is_valid sspstrong uwtable
define ptr @tls_get_master_key_map(i1 noundef zeroext %0) #0 {
  %2 = alloca i8, align 1
  %3 = zext i1 %0 to i8
  store i8 %3, ptr %2, align 1
  %4 = load i8, ptr %2, align 1, !range !6, !noundef !7
  %5 = trunc i8 %4 to i1
  br i1 %5, label %6, label %8

6:                                                ; preds = %1
  %7 = load ptr, ptr getelementptr inbounds nuw (%struct.ssl_common_options, ptr @ssl_options, i32 0, i32 1), align 8
  call void @ssl_load_keyfile(ptr noundef %7, ptr noundef @ssl_keylog_file, ptr noundef @ssl_master_key_map)
  br label %8

8:                                                ; preds = %6, %1
  ret ptr @ssl_master_key_map
}