; Function Attrs: null_pointer_is_valid sspstrong uwtable
define noundef nonnull ptr @tls_get_master_key_map(i1 noundef zeroext %0) local_unnamed_addr #0 {
  br i1 %0, label %2, label %4

2:                                                ; preds = %1
  %3 = load ptr, ptr getelementptr inbounds nuw (i8, ptr @ssl_options, i64 8), align 8
  tail call void @ssl_load_keyfile(ptr noundef %3, ptr noundef nonnull @ssl_keylog_file, ptr noundef nonnull @ssl_master_key_map)
  br label %4

4:                                                ; preds = %2, %1
  ret ptr @ssl_master_key_map
}